   1               		.file	"RobotModel_controls.c"
   2               	__SREG__ = 0x3f
   3               	__SP_H__ = 0x3e
   4               	__SP_L__ = 0x3d
   5               	__CCP__  = 0x34
   6               	__tmp_reg__ = 0
   7               	__zero_reg__ = 1
  15               	.Ltext0:
  16               	.global	startTimer
  18               	startTimer:
  19               	.LFB10:
  20               	.LM1:
  21               	/* prologue: function */
  22               	/* frame size = 0 */
  23               	.LM2:
  24 0000 82E0      		ldi r24,lo8(2)
  25 0002 84BD      		out 68-32,r24
  26               	.LM3:
  27 0004 93E0      		ldi r25,lo8(3)
  28 0006 95BD      		out 69-32,r25
  29               	.LM4:
  30 0008 9AEF      		ldi r25,lo8(-6)
  31 000a 97BD      		out 71-32,r25
  32               	.LM5:
  33 000c 8093 6E00 		sts 110,r24
  34               	.LM6:
  35 0010 1092 0000 		sts milliseconds,__zero_reg__
  36 0014 1092 0000 		sts (milliseconds)+1,__zero_reg__
  37 0018 1092 0000 		sts (milliseconds)+2,__zero_reg__
  38 001c 1092 0000 		sts (milliseconds)+3,__zero_reg__
  39               	/* epilogue start */
  40               	.LM7:
  41 0020 0895      		ret
  42               	.LFE10:
  44               	.global	__vector_21
  46               	__vector_21:
  47               	.LFB11:
  48               	.LM8:
  49 0022 1F92      		push __zero_reg__
  50 0024 0F92      		push r0
  51 0026 0FB6      		in r0,__SREG__
  52 0028 0F92      		push r0
  53 002a 1124      		clr __zero_reg__
  54 002c 8F93      		push r24
  55 002e 9F93      		push r25
  56 0030 AF93      		push r26
  57 0032 BF93      		push r27
  58               	/* prologue: Signal */
  59               	/* frame size = 0 */
  60               	.LM9:
  61 0034 8091 0000 		lds r24,milliseconds
  62 0038 9091 0000 		lds r25,(milliseconds)+1
  63 003c A091 0000 		lds r26,(milliseconds)+2
  64 0040 B091 0000 		lds r27,(milliseconds)+3
  65 0044 0196      		adiw r24,1
  66 0046 A11D      		adc r26,__zero_reg__
  67 0048 B11D      		adc r27,__zero_reg__
  68 004a 8093 0000 		sts milliseconds,r24
  69 004e 9093 0000 		sts (milliseconds)+1,r25
  70 0052 A093 0000 		sts (milliseconds)+2,r26
  71 0056 B093 0000 		sts (milliseconds)+3,r27
  72               	/* epilogue start */
  73               	.LM10:
  74 005a BF91      		pop r27
  75 005c AF91      		pop r26
  76 005e 9F91      		pop r25
  77 0060 8F91      		pop r24
  78 0062 0F90      		pop r0
  79 0064 0FBE      		out __SREG__,r0
  80 0066 0F90      		pop r0
  81 0068 1F90      		pop __zero_reg__
  82 006a 1895      		reti
  83               	.LFE11:
  85               	.global	getLeftError
  87               	getLeftError:
  88               	.LFB9:
  89               	.LM11:
  90               	/* prologue: function */
  91               	/* frame size = 0 */
  92               	.LM12:
  93 006c 0E94 0000 		call getLeftIR
  94 0070 20E0      		ldi r18,lo8(0x40a00000)
  95 0072 30E0      		ldi r19,hi8(0x40a00000)
  96 0074 40EA      		ldi r20,hlo8(0x40a00000)
  97 0076 50E4      		ldi r21,hhi8(0x40a00000)
  98 0078 0E94 0000 		call __subsf3
  99               	/* epilogue start */
 100               	.LM13:
 101 007c 0895      		ret
 102               	.LFE9:
 104               	.global	getRightError
 106               	getRightError:
 107               	.LFB8:
 108               	.LM14:
 109               	/* prologue: function */
 110               	/* frame size = 0 */
 111               	.LM15:
 112 007e 0E94 0000 		call getRightIR
 113 0082 20E0      		ldi r18,lo8(0x40a00000)
 114 0084 30E0      		ldi r19,hi8(0x40a00000)
 115 0086 40EA      		ldi r20,hlo8(0x40a00000)
 116 0088 50E4      		ldi r21,hhi8(0x40a00000)
 117 008a 0E94 0000 		call __subsf3
 118               	/* epilogue start */
 119               	.LM16:
 120 008e 0895      		ret
 121               	.LFE8:
 123               	.global	getOffsetError
 125               	getOffsetError:
 126               	.LFB7:
 127               	.LM17:
 128 0090 2F92      		push r2
 129 0092 3F92      		push r3
 130 0094 4F92      		push r4
 131 0096 5F92      		push r5
 132 0098 6F92      		push r6
 133 009a 7F92      		push r7
 134 009c 8F92      		push r8
 135 009e 9F92      		push r9
 136 00a0 AF92      		push r10
 137 00a2 BF92      		push r11
 138 00a4 CF92      		push r12
 139 00a6 DF92      		push r13
 140 00a8 EF92      		push r14
 141 00aa FF92      		push r15
 142 00ac 0F93      		push r16
 143 00ae 1F93      		push r17
 144 00b0 CF93      		push r28
 145 00b2 DF93      		push r29
 146               	/* prologue: function */
 147               	/* frame size = 0 */
 148               	.LM18:
 149 00b4 8091 0000 		lds r24,flag
 150 00b8 9091 0000 		lds r25,(flag)+1
 151 00bc 0197      		sbiw r24,1
 152 00be 01F0      		breq .L10
 153               	.LM19:
 154 00c0 0E94 0000 		call getLeftIR
 155 00c4 6093 0000 		sts lPrevious,r22
 156 00c8 7093 0000 		sts (lPrevious)+1,r23
 157 00cc 8093 0000 		sts (lPrevious)+2,r24
 158 00d0 9093 0000 		sts (lPrevious)+3,r25
 159               	.LM20:
 160 00d4 0E94 0000 		call getRightIR
 161 00d8 6093 0000 		sts rPrevious,r22
 162 00dc 7093 0000 		sts (rPrevious)+1,r23
 163 00e0 8093 0000 		sts (rPrevious)+2,r24
 164 00e4 9093 0000 		sts (rPrevious)+3,r25
 165               	.LM21:
 166 00e8 81E0      		ldi r24,lo8(1)
 167 00ea 90E0      		ldi r25,hi8(1)
 168 00ec 9093 0000 		sts (flag)+1,r25
 169 00f0 8093 0000 		sts flag,r24
 170               	.L10:
 171               	.LM22:
 172 00f4 0E94 0000 		call getLeftIR
 173 00f8 1B01      		movw r2,r22
 174 00fa 2C01      		movw r4,r24
 175               	.LVL0:
 176               	.LM23:
 177 00fc 0E94 0000 		call getRightIR
 178 0100 3B01      		movw r6,r22
 179 0102 4C01      		movw r8,r24
 180               	.LVL1:
 181               	.LM24:
 182 0104 2091 0000 		lds r18,lPrevious
 183 0108 3091 0000 		lds r19,(lPrevious)+1
 184 010c 4091 0000 		lds r20,(lPrevious)+2
 185 0110 5091 0000 		lds r21,(lPrevious)+3
 186 0114 C201      		movw r24,r4
 187 0116 B101      		movw r22,r2
 188 0118 0E94 0000 		call __subsf3
 189 011c 20E0      		ldi r18,lo8(0x3f800000)
 190 011e 30E0      		ldi r19,hi8(0x3f800000)
 191 0120 40E8      		ldi r20,hlo8(0x3f800000)
 192 0122 5FE3      		ldi r21,hhi8(0x3f800000)
 193 0124 0E94 0000 		call __gtsf2
 194 0128 1816      		cp __zero_reg__,r24
 195 012a 04F4      		brge .L11
 196               	.LM25:
 197 012c 1092 0000 		sts (mouse+70)+1,__zero_reg__
 198 0130 1092 0000 		sts mouse+70,__zero_reg__
 199               	.LM26:
 200 0134 1092 0000 		sts (mouse+72)+1,__zero_reg__
 201 0138 1092 0000 		sts mouse+72,__zero_reg__
 202               	.LM27:
 203 013c 1092 0000 		sts (mouse+74)+1,__zero_reg__
 204 0140 1092 0000 		sts mouse+74,__zero_reg__
 205               	.L11:
 206               	.LM28:
 207 0144 2091 0000 		lds r18,rPrevious
 208 0148 3091 0000 		lds r19,(rPrevious)+1
 209 014c 4091 0000 		lds r20,(rPrevious)+2
 210 0150 5091 0000 		lds r21,(rPrevious)+3
 211 0154 C401      		movw r24,r8
 212 0156 B301      		movw r22,r6
 213 0158 0E94 0000 		call __subsf3
 214 015c 20E0      		ldi r18,lo8(0x3f800000)
 215 015e 30E0      		ldi r19,hi8(0x3f800000)
 216 0160 40E8      		ldi r20,hlo8(0x3f800000)
 217 0162 5FE3      		ldi r21,hhi8(0x3f800000)
 218 0164 0E94 0000 		call __gtsf2
 219 0168 1816      		cp __zero_reg__,r24
 220 016a 04F4      		brge .L13
 221               	.LM29:
 222 016c 1092 0000 		sts (mouse+70)+1,__zero_reg__
 223 0170 1092 0000 		sts mouse+70,__zero_reg__
 224               	.LM30:
 225 0174 1092 0000 		sts (mouse+72)+1,__zero_reg__
 226 0178 1092 0000 		sts mouse+72,__zero_reg__
 227               	.LM31:
 228 017c 1092 0000 		sts (mouse+74)+1,__zero_reg__
 229 0180 1092 0000 		sts mouse+74,__zero_reg__
 230               	.L13:
 231               	.LM32:
 232 0184 8091 0000 		lds r24,mouse+70
 233 0188 9091 0000 		lds r25,(mouse+70)+1
 234 018c 892B      		or r24,r25
 235 018e 01F4      		brne .+2
 236 0190 00C0      		rjmp .L15
 237               	.LM33:
 238 0192 C091 0000 		lds r28,mouse+70
 239 0196 D091 0000 		lds r29,(mouse+70)+1
 240               	.LM34:
 241 019a C401      		movw r24,r8
 242 019c B301      		movw r22,r6
 243 019e A201      		movw r20,r4
 244 01a0 9101      		movw r18,r2
 245 01a2 0E94 0000 		call __subsf3
 246 01a6 5B01      		movw r10,r22
 247 01a8 6C01      		movw r12,r24
 248 01aa 20E0      		ldi r18,lo8(0x41200000)
 249 01ac 30E0      		ldi r19,hi8(0x41200000)
 250 01ae 40E2      		ldi r20,hlo8(0x41200000)
 251 01b0 51E4      		ldi r21,hhi8(0x41200000)
 252 01b2 0E94 0000 		call __gtsf2
 253 01b6 1816      		cp __zero_reg__,r24
 254 01b8 04F0      		brlt .L16
 255               	.LM35:
 256 01ba C401      		movw r24,r8
 257 01bc B301      		movw r22,r6
 258 01be 20E0      		ldi r18,lo8(0x40a00000)
 259 01c0 30E0      		ldi r19,hi8(0x40a00000)
 260 01c2 40EA      		ldi r20,hlo8(0x40a00000)
 261 01c4 50E4      		ldi r21,hhi8(0x40a00000)
 262 01c6 0E94 0000 		call __subsf3
 263 01ca 7B01      		movw r14,r22
 264 01cc 8C01      		movw r16,r24
 265 01ce BE01      		movw r22,r28
 266 01d0 8827      		clr r24
 267 01d2 77FD      		sbrc r23,7
 268 01d4 8095      		com r24
 269 01d6 982F      		mov r25,r24
 270 01d8 0E94 0000 		call __floatsisf
 271 01dc 9B01      		movw r18,r22
 272 01de AC01      		movw r20,r24
 273 01e0 C801      		movw r24,r16
 274 01e2 B701      		movw r22,r14
 275 01e4 0E94 0000 		call __mulsf3
 276 01e8 00C0      		rjmp .L26
 277               	.L16:
 278               	.LM36:
 279 01ea 2091 0000 		lds r18,mouse+70
 280 01ee 3091 0000 		lds r19,(mouse+70)+1
 281 01f2 B901      		movw r22,r18
 282 01f4 660F      		lsl r22
 283 01f6 771F      		rol r23
 284 01f8 620F      		add r22,r18
 285 01fa 731F      		adc r23,r19
 286 01fc 8827      		clr r24
 287 01fe 77FD      		sbrc r23,7
 288 0200 8095      		com r24
 289 0202 982F      		mov r25,r24
 290 0204 0E94 0000 		call __floatsisf
 291               	.L26:
 292 0208 7B01      		movw r14,r22
 293 020a 8C01      		movw r16,r24
 294               	.LVL2:
 295               	.LM37:
 296 020c C601      		movw r24,r12
 297 020e B501      		movw r22,r10
 298 0210 20E0      		ldi r18,lo8(0xc1200000)
 299 0212 30E0      		ldi r19,hi8(0xc1200000)
 300 0214 40E2      		ldi r20,hlo8(0xc1200000)
 301 0216 51EC      		ldi r21,hhi8(0xc1200000)
 302 0218 0E94 0000 		call __ltsf2
 303 021c 8823      		tst r24
 304 021e 04F0      		brlt .+2
 305 0220 00C0      		rjmp .L18
 306               	.LM38:
 307 0222 2091 0000 		lds r18,mouse+70
 308 0226 3091 0000 		lds r19,(mouse+70)+1
 309 022a B901      		movw r22,r18
 310 022c 660F      		lsl r22
 311 022e 771F      		rol r23
 312 0230 620F      		add r22,r18
 313 0232 731F      		adc r23,r19
 314 0234 7095      		com r23
 315 0236 6195      		neg r22
 316 0238 7F4F      		sbci r23,lo8(-1)
 317 023a 8827      		clr r24
 318 023c 77FD      		sbrc r23,7
 319 023e 8095      		com r24
 320 0240 982F      		mov r25,r24
 321 0242 0E94 0000 		call __floatsisf
 322 0246 00C0      		rjmp .L27
 323               	.LVL3:
 324               	.L15:
 325               	.LM39:
 326 0248 8091 0000 		lds r24,mouse+72
 327 024c 9091 0000 		lds r25,(mouse+72)+1
 328 0250 892B      		or r24,r25
 329 0252 01F0      		breq .L20
 330               	.LM40:
 331 0254 0E94 0000 		call getLeftError
 332 0258 7B01      		movw r14,r22
 333 025a 8C01      		movw r16,r24
 334 025c 6091 0000 		lds r22,mouse+72
 335 0260 7091 0000 		lds r23,(mouse+72)+1
 336 0264 00C0      		rjmp .L28
 337               	.L20:
 338               	.LM41:
 339 0266 8091 0000 		lds r24,mouse+74
 340 026a 9091 0000 		lds r25,(mouse+74)+1
 341 026e 892B      		or r24,r25
 342 0270 01F4      		brne .L21
 343 0272 0F2E      		mov __tmp_reg__,r31
 344 0274 F0E0      		ldi r31,lo8(0x0)
 345 0276 EF2E      		mov r14,r31
 346 0278 F0E0      		ldi r31,hi8(0x0)
 347 027a FF2E      		mov r15,r31
 348 027c F0E0      		ldi r31,hlo8(0x0)
 349 027e 0F2F      		mov r16,r31
 350 0280 F0E0      		ldi r31,hhi8(0x0)
 351 0282 1F2F      		mov r17,r31
 352 0284 F02D      		mov r31,__tmp_reg__
 353               	.LVL4:
 354 0286 00C0      		rjmp .L18
 355               	.LVL5:
 356               	.L21:
 357               	.LM42:
 358 0288 0E94 0000 		call getRightError
 359 028c 7B01      		movw r14,r22
 360 028e 8C01      		movw r16,r24
 361 0290 6091 0000 		lds r22,mouse+74
 362 0294 7091 0000 		lds r23,(mouse+74)+1
 363               	.L28:
 364 0298 8827      		clr r24
 365 029a 77FD      		sbrc r23,7
 366 029c 8095      		com r24
 367 029e 982F      		mov r25,r24
 368 02a0 0E94 0000 		call __floatsisf
 369 02a4 9B01      		movw r18,r22
 370 02a6 AC01      		movw r20,r24
 371 02a8 C801      		movw r24,r16
 372 02aa B701      		movw r22,r14
 373 02ac 0E94 0000 		call __mulsf3
 374               	.LVL6:
 375               	.L27:
 376 02b0 7B01      		movw r14,r22
 377 02b2 8C01      		movw r16,r24
 378               	.L18:
 379               	.LM43:
 380 02b4 2092 0000 		sts lPrevious,r2
 381 02b8 3092 0000 		sts (lPrevious)+1,r3
 382 02bc 4092 0000 		sts (lPrevious)+2,r4
 383 02c0 5092 0000 		sts (lPrevious)+3,r5
 384               	.LM44:
 385 02c4 6092 0000 		sts rPrevious,r6
 386 02c8 7092 0000 		sts (rPrevious)+1,r7
 387 02cc 8092 0000 		sts (rPrevious)+2,r8
 388 02d0 9092 0000 		sts (rPrevious)+3,r9
 389 02d4 C801      		movw r24,r16
 390 02d6 B701      		movw r22,r14
 391 02d8 0E94 0000 		call __fixsfsi
 392               	.LM45:
 393 02dc CB01      		movw r24,r22
 394               	/* epilogue start */
 395 02de DF91      		pop r29
 396 02e0 CF91      		pop r28
 397 02e2 1F91      		pop r17
 398 02e4 0F91      		pop r16
 399 02e6 FF90      		pop r15
 400 02e8 EF90      		pop r14
 401               	.LVL7:
 402 02ea DF90      		pop r13
 403 02ec CF90      		pop r12
 404 02ee BF90      		pop r11
 405 02f0 AF90      		pop r10
 406 02f2 9F90      		pop r9
 407 02f4 8F90      		pop r8
 408 02f6 7F90      		pop r7
 409 02f8 6F90      		pop r6
 410               	.LVL8:
 411 02fa 5F90      		pop r5
 412 02fc 4F90      		pop r4
 413 02fe 3F90      		pop r3
 414 0300 2F90      		pop r2
 415               	.LVL9:
 416 0302 0895      		ret
 417               	.LFE7:
 419               	.global	straight
 421               	straight:
 422               	.LFB6:
 423               	.LM46:
 424               	.LVL10:
 425 0304 2F92      		push r2
 426 0306 3F92      		push r3
 427 0308 4F92      		push r4
 428 030a 5F92      		push r5
 429 030c 6F92      		push r6
 430 030e 7F92      		push r7
 431 0310 8F92      		push r8
 432 0312 9F92      		push r9
 433 0314 AF92      		push r10
 434 0316 BF92      		push r11
 435 0318 CF92      		push r12
 436               	.LVL11:
 437 031a DF92      		push r13
 438 031c EF92      		push r14
 439               	.LVL12:
 440 031e FF92      		push r15
 441 0320 0F93      		push r16
 442               	.LVL13:
 443 0322 1F93      		push r17
 444 0324 DF93      		push r29
 445 0326 CF93      		push r28
 446 0328 CDB7      		in r28,__SP_L__
 447 032a DEB7      		in r29,__SP_H__
 448 032c AE97      		sbiw r28,46
 449 032e 0FB6      		in __tmp_reg__,__SREG__
 450 0330 F894      		cli
 451 0332 DEBF      		out __SP_H__,r29
 452 0334 0FBE      		out __SREG__,__tmp_reg__
 453 0336 CDBF      		out __SP_L__,r28
 454               	/* prologue: function */
 455               	/* frame size = 46 */
 456 0338 6987      		std Y+9,r22
 457 033a 7A87      		std Y+10,r23
 458 033c 8B87      		std Y+11,r24
 459 033e 9C87      		std Y+12,r25
 460 0340 3EA7      		std Y+46,r19
 461 0342 2DA7      		std Y+45,r18
 462 0344 1E87      		std Y+14,r17
 463 0346 0D87      		std Y+13,r16
 464               	.LVL14:
 465 0348 D88A      		std Y+16,r13
 466 034a CF86      		std Y+15,r12
 467               	.LVL15:
 468               	.LM47:
 469 034c 8091 0000 		lds r24,milliseconds
 470 0350 9091 0000 		lds r25,(milliseconds)+1
 471 0354 A091 0000 		lds r26,(milliseconds)+2
 472 0358 B091 0000 		lds r27,(milliseconds)+3
 473 035c 8D83      		std Y+5,r24
 474 035e 9E83      		std Y+6,r25
 475 0360 AF83      		std Y+7,r26
 476 0362 B887      		std Y+8,r27
 477               	.LVL16:
 478               	.LM48:
 479 0364 1092 0000 		sts mouse+6,__zero_reg__
 480 0368 1092 0000 		sts (mouse+6)+1,__zero_reg__
 481 036c 1092 0000 		sts (mouse+6)+2,__zero_reg__
 482 0370 1092 0000 		sts (mouse+6)+3,__zero_reg__
 483 0374 8091 0000 		lds r24,mouse+6
 484 0378 9091 0000 		lds r25,(mouse+6)+1
 485 037c A091 0000 		lds r26,(mouse+6)+2
 486 0380 B091 0000 		lds r27,(mouse+6)+3
 487 0384 8093 0000 		sts mouse+30,r24
 488 0388 9093 0000 		sts (mouse+30)+1,r25
 489 038c A093 0000 		sts (mouse+30)+2,r26
 490 0390 B093 0000 		sts (mouse+30)+3,r27
 491               	.LM49:
 492 0394 CA01      		movw r24,r20
 493 0396 AA27      		clr r26
 494 0398 97FD      		sbrc r25,7
 495 039a A095      		com r26
 496 039c BA2F      		mov r27,r26
 497 039e 898F      		std Y+25,r24
 498 03a0 9A8F      		std Y+26,r25
 499 03a2 AB8F      		std Y+27,r26
 500 03a4 BC8F      		std Y+28,r27
 501 03a6 9701      		movw r18,r14
 502 03a8 4427      		clr r20
 503 03aa 37FD      		sbrc r19,7
 504 03ac 4095      		com r20
 505 03ae 542F      		mov r21,r20
 506               	.LVL17:
 507 03b0 2D8F      		std Y+29,r18
 508 03b2 3E8F      		std Y+30,r19
 509 03b4 4F8F      		std Y+31,r20
 510 03b6 58A3      		std Y+32,r21
 511 03b8 8DA5      		ldd r24,Y+45
 512 03ba 9EA5      		ldd r25,Y+46
 513 03bc AA27      		clr r26
 514 03be 97FD      		sbrc r25,7
 515 03c0 A095      		com r26
 516 03c2 BA2F      		mov r27,r26
 517 03c4 89A3      		std Y+33,r24
 518 03c6 9AA3      		std Y+34,r25
 519 03c8 ABA3      		std Y+35,r26
 520 03ca BCA3      		std Y+36,r27
 521               	.LBB20:
 522               	.LM50:
 523 03cc 9601      		movw r18,r12
 524 03ce 4427      		clr r20
 525 03d0 37FD      		sbrc r19,7
 526 03d2 4095      		com r20
 527 03d4 542F      		mov r21,r20
 528 03d6 2DA3      		std Y+37,r18
 529 03d8 3EA3      		std Y+38,r19
 530 03da 4FA3      		std Y+39,r20
 531 03dc 58A7      		std Y+40,r21
 532 03de C801      		movw r24,r16
 533 03e0 AA27      		clr r26
 534 03e2 97FD      		sbrc r25,7
 535 03e4 A095      		com r26
 536 03e6 BA2F      		mov r27,r26
 537 03e8 89A7      		std Y+41,r24
 538 03ea 9AA7      		std Y+42,r25
 539 03ec ABA7      		std Y+43,r26
 540 03ee BCA7      		std Y+44,r27
 541 03f0 00C0      		rjmp .L30
 542               	.LVL18:
 543               	.L35:
 544               	.LM51:
 545 03f2 6091 0000 		lds r22,milliseconds
 546 03f6 7091 0000 		lds r23,(milliseconds)+1
 547 03fa 8091 0000 		lds r24,(milliseconds)+2
 548 03fe 9091 0000 		lds r25,(milliseconds)+3
 549 0402 2D81      		ldd r18,Y+5
 550 0404 3E81      		ldd r19,Y+6
 551 0406 4F81      		ldd r20,Y+7
 552 0408 5885      		ldd r21,Y+8
 553 040a 621B      		sub r22,r18
 554 040c 730B      		sbc r23,r19
 555 040e 840B      		sbc r24,r20
 556 0410 950B      		sbc r25,r21
 557 0412 0E94 0000 		call __floatunsisf
 558 0416 20E0      		ldi r18,lo8(0x447a0000)
 559 0418 30E0      		ldi r19,hi8(0x447a0000)
 560 041a 4AE7      		ldi r20,hlo8(0x447a0000)
 561 041c 54E4      		ldi r21,hhi8(0x447a0000)
 562 041e 0E94 0000 		call __divsf3
 563 0422 9B01      		movw r18,r22
 564 0424 AC01      		movw r20,r24
 565 0426 C601      		movw r24,r12
 566 0428 B501      		movw r22,r10
 567 042a 0E94 0000 		call __mulsf3
 568 042e 9B01      		movw r18,r22
 569 0430 AC01      		movw r20,r24
 570 0432 C401      		movw r24,r8
 571 0434 B301      		movw r22,r6
 572 0436 0E94 0000 		call __addsf3
 573 043a 698B      		std Y+17,r22
 574 043c 7A8B      		std Y+18,r23
 575 043e 8B8B      		std Y+19,r24
 576 0440 9C8B      		std Y+20,r25
 577               	.LM52:
 578 0442 0E94 0000 		call getOffsetError
 579               	.LM53:
 580 0446 2989      		ldd r18,Y+17
 581 0448 3A89      		ldd r19,Y+18
 582 044a 4B89      		ldd r20,Y+19
 583 044c 5C89      		ldd r21,Y+20
 584 044e 2093 0000 		sts mouse+66,r18
 585 0452 3093 0000 		sts (mouse+66)+1,r19
 586 0456 4093 0000 		sts (mouse+66)+2,r20
 587 045a 5093 0000 		sts (mouse+66)+3,r21
 588               	.LM54:
 589 045e AA27      		clr r26
 590 0460 97FD      		sbrc r25,7
 591 0462 A095      		com r26
 592 0464 BA2F      		mov r27,r26
 593               	.LVL19:
 594 0466 BC01      		movw r22,r24
 595 0468 CD01      		movw r24,r26
 596 046a 0E94 0000 		call __floatsisf
 597               	.LVL20:
 598 046e 7B01      		movw r14,r22
 599 0470 8C01      		movw r16,r24
 600 0472 6989      		ldd r22,Y+17
 601 0474 7A89      		ldd r23,Y+18
 602 0476 8B89      		ldd r24,Y+19
 603 0478 9C89      		ldd r25,Y+20
 604 047a A801      		movw r20,r16
 605 047c 9701      		movw r18,r14
 606 047e 0E94 0000 		call __subsf3
 607 0482 0E94 0000 		call __fixsfsi
 608 0486 DC01      		movw r26,r24
 609 0488 CB01      		movw r24,r22
 610 048a 0E94 0000 		call getDelayFromVelocity
 611 048e AA27      		clr r26
 612 0490 97FD      		sbrc r25,7
 613 0492 A095      		com r26
 614 0494 BA2F      		mov r27,r26
 615 0496 BC01      		movw r22,r24
 616 0498 CD01      		movw r24,r26
 617 049a 0E94 0000 		call __floatsisf
 618 049e 6093 0000 		sts mouse+10,r22
 619 04a2 7093 0000 		sts (mouse+10)+1,r23
 620 04a6 8093 0000 		sts (mouse+10)+2,r24
 621 04aa 9093 0000 		sts (mouse+10)+3,r25
 622               	.LM55:
 623 04ae 6989      		ldd r22,Y+17
 624 04b0 7A89      		ldd r23,Y+18
 625 04b2 8B89      		ldd r24,Y+19
 626 04b4 9C89      		ldd r25,Y+20
 627 04b6 A801      		movw r20,r16
 628 04b8 9701      		movw r18,r14
 629 04ba 0E94 0000 		call __addsf3
 630 04be 0E94 0000 		call __fixsfsi
 631 04c2 DC01      		movw r26,r24
 632 04c4 CB01      		movw r24,r22
 633 04c6 0E94 0000 		call getDelayFromVelocity
 634 04ca AA27      		clr r26
 635 04cc 97FD      		sbrc r25,7
 636 04ce A095      		com r26
 637 04d0 BA2F      		mov r27,r26
 638 04d2 BC01      		movw r22,r24
 639 04d4 CD01      		movw r24,r26
 640 04d6 0E94 0000 		call __floatsisf
 641 04da 6093 0000 		sts mouse+34,r22
 642 04de 7093 0000 		sts (mouse+34)+1,r23
 643 04e2 8093 0000 		sts (mouse+34)+2,r24
 644 04e6 9093 0000 		sts (mouse+34)+3,r25
 645               	.LM56:
 646 04ea 6DA1      		ldd r22,Y+37
 647 04ec 7EA1      		ldd r23,Y+38
 648 04ee 8FA1      		ldd r24,Y+39
 649 04f0 98A5      		ldd r25,Y+40
 650 04f2 0E94 0000 		call __floatsisf
 651 04f6 5B01      		movw r10,r22
 652 04f8 6C01      		movw r12,r24
 653 04fa 69A5      		ldd r22,Y+41
 654 04fc 7AA5      		ldd r23,Y+42
 655 04fe 8BA5      		ldd r24,Y+43
 656 0500 9CA5      		ldd r25,Y+44
 657 0502 0E94 0000 		call __floatsisf
 658 0506 3B01      		movw r6,r22
 659 0508 4C01      		movw r8,r24
 660               	.LM57:
 661 050a 6091 0000 		lds r22,mouse+6
 662 050e 7091 0000 		lds r23,(mouse+6)+1
 663 0512 8091 0000 		lds r24,(mouse+6)+2
 664 0516 9091 0000 		lds r25,(mouse+6)+3
 665 051a 0E94 0000 		call __floatsisf
 666 051e 6D8B      		std Y+21,r22
 667 0520 7E8B      		std Y+22,r23
 668 0522 8F8B      		std Y+23,r24
 669 0524 988F      		std Y+24,r25
 670 0526 6989      		ldd r22,Y+17
 671 0528 7A89      		ldd r23,Y+18
 672 052a 8B89      		ldd r24,Y+19
 673 052c 9C89      		ldd r25,Y+20
 674 052e 9B01      		movw r18,r22
 675 0530 AC01      		movw r20,r24
 676 0532 0E94 0000 		call __mulsf3
 677 0536 7B01      		movw r14,r22
 678 0538 8C01      		movw r16,r24
 679 053a C601      		movw r24,r12
 680 053c B501      		movw r22,r10
 681 053e A601      		movw r20,r12
 682 0540 9501      		movw r18,r10
 683 0542 0E94 0000 		call __addsf3
 684 0546 9B01      		movw r18,r22
 685 0548 AC01      		movw r20,r24
 686 054a C801      		movw r24,r16
 687 054c B701      		movw r22,r14
 688 054e 0E94 0000 		call __divsf3
 689 0552 1B01      		movw r2,r22
 690 0554 2C01      		movw r4,r24
 691 0556 C401      		movw r24,r8
 692 0558 B301      		movw r22,r6
 693 055a A401      		movw r20,r8
 694 055c 9301      		movw r18,r6
 695 055e 0E94 0000 		call __mulsf3
 696 0562 7B01      		movw r14,r22
 697 0564 8C01      		movw r16,r24
 698 0566 C601      		movw r24,r12
 699 0568 B501      		movw r22,r10
 700 056a 20E0      		ldi r18,lo8(0xc0000000)
 701 056c 30E0      		ldi r19,hi8(0xc0000000)
 702 056e 40E0      		ldi r20,hlo8(0xc0000000)
 703 0570 50EC      		ldi r21,hhi8(0xc0000000)
 704 0572 0E94 0000 		call __mulsf3
 705 0576 9B01      		movw r18,r22
 706 0578 AC01      		movw r20,r24
 707 057a C801      		movw r24,r16
 708 057c B701      		movw r22,r14
 709 057e 0E94 0000 		call __divsf3
 710 0582 9B01      		movw r18,r22
 711 0584 AC01      		movw r20,r24
 712 0586 C201      		movw r24,r4
 713 0588 B101      		movw r22,r2
 714 058a 0E94 0000 		call __addsf3
 715 058e 9B01      		movw r18,r22
 716 0590 AC01      		movw r20,r24
 717 0592 6D89      		ldd r22,Y+21
 718 0594 7E89      		ldd r23,Y+22
 719 0596 8F89      		ldd r24,Y+23
 720 0598 988D      		ldd r25,Y+24
 721 059a 0E94 0000 		call __addsf3
 722 059e 7B01      		movw r14,r22
 723 05a0 8C01      		movw r16,r24
 724 05a2 6985      		ldd r22,Y+9
 725 05a4 7A85      		ldd r23,Y+10
 726 05a6 8B85      		ldd r24,Y+11
 727 05a8 9C85      		ldd r25,Y+12
 728 05aa 0E94 0000 		call __floatsisf
 729 05ae 9B01      		movw r18,r22
 730 05b0 AC01      		movw r20,r24
 731 05b2 C801      		movw r24,r16
 732 05b4 B701      		movw r22,r14
 733 05b6 0E94 0000 		call __gesf2
 734 05ba 8823      		tst r24
 735 05bc 04F0      		brlt .L42
 736               	.LM58:
 737 05be 6989      		ldd r22,Y+17
 738 05c0 7A89      		ldd r23,Y+18
 739 05c2 8B89      		ldd r24,Y+19
 740 05c4 9C89      		ldd r25,Y+20
 741 05c6 0E94 0000 		call __fixsfsi
 742 05ca 7EA7      		std Y+46,r23
 743 05cc 6DA7      		std Y+45,r22
 744               	.LVL21:
 745 05ce 00C0      		rjmp .L33
 746               	.L42:
 747               	.LM59:
 748 05d0 8091 0000 		lds r24,mouse+6
 749 05d4 9091 0000 		lds r25,(mouse+6)+1
 750 05d8 A091 0000 		lds r26,(mouse+6)+2
 751 05dc B091 0000 		lds r27,(mouse+6)+3
 752 05e0 2985      		ldd r18,Y+9
 753 05e2 3A85      		ldd r19,Y+10
 754 05e4 4B85      		ldd r20,Y+11
 755 05e6 5C85      		ldd r21,Y+12
 756 05e8 8217      		cp r24,r18
 757 05ea 9307      		cpc r25,r19
 758 05ec A407      		cpc r26,r20
 759 05ee B507      		cpc r27,r21
 760 05f0 04F0      		brlt .+2
 761 05f2 00C0      		rjmp .L39
 762               	.LBB21:
 763               	.LBB22:
 764               	.LBB23:
 765               	.LBB24:
 766               	.LM60:
 767 05f4 80EA      		ldi r24,lo8(4000)
 768 05f6 9FE0      		ldi r25,hi8(4000)
 769               	.LVL22:
 770               	/* #APP */
 771               	 ;  105 "c:/winavr-20100110/lib/gcc/../../avr/include/util/delay_basic.h" 1
 772 05f8 0197      		1: sbiw r24,1
 773 05fa 01F4      		brne 1b
 774               	 ;  0 "" 2
 775               	.LVL23:
 776               	/* #NOAPP */
 777               	.L30:
 778               	.LBE24:
 779               	.LBE23:
 780               	.LBE22:
 781               	.LBE21:
 782               	.LBE20:
 783               	.LM61:
 784 05fc 698D      		ldd r22,Y+25
 785 05fe 7A8D      		ldd r23,Y+26
 786 0600 8B8D      		ldd r24,Y+27
 787 0602 9C8D      		ldd r25,Y+28
 788 0604 0E94 0000 		call __floatsisf
 789               	.LVL24:
 790 0608 3B01      		movw r6,r22
 791 060a 4C01      		movw r8,r24
 792 060c 6D8D      		ldd r22,Y+29
 793 060e 7E8D      		ldd r23,Y+30
 794 0610 8F8D      		ldd r24,Y+31
 795 0612 98A1      		ldd r25,Y+32
 796 0614 0E94 0000 		call __floatsisf
 797 0618 5B01      		movw r10,r22
 798 061a 6C01      		movw r12,r24
 799 061c 6091 0000 		lds r22,milliseconds
 800 0620 7091 0000 		lds r23,(milliseconds)+1
 801 0624 8091 0000 		lds r24,(milliseconds)+2
 802 0628 9091 0000 		lds r25,(milliseconds)+3
 803 062c 2D81      		ldd r18,Y+5
 804 062e 3E81      		ldd r19,Y+6
 805 0630 4F81      		ldd r20,Y+7
 806 0632 5885      		ldd r21,Y+8
 807 0634 621B      		sub r22,r18
 808 0636 730B      		sbc r23,r19
 809 0638 840B      		sbc r24,r20
 810 063a 950B      		sbc r25,r21
 811 063c 0E94 0000 		call __floatunsisf
 812 0640 20E0      		ldi r18,lo8(0x447a0000)
 813 0642 30E0      		ldi r19,hi8(0x447a0000)
 814 0644 4AE7      		ldi r20,hlo8(0x447a0000)
 815 0646 54E4      		ldi r21,hhi8(0x447a0000)
 816 0648 0E94 0000 		call __divsf3
 817 064c 9B01      		movw r18,r22
 818 064e AC01      		movw r20,r24
 819 0650 C601      		movw r24,r12
 820 0652 B501      		movw r22,r10
 821 0654 0E94 0000 		call __mulsf3
 822 0658 9B01      		movw r18,r22
 823 065a AC01      		movw r20,r24
 824 065c C401      		movw r24,r8
 825 065e B301      		movw r22,r6
 826 0660 0E94 0000 		call __addsf3
 827 0664 7B01      		movw r14,r22
 828 0666 8C01      		movw r16,r24
 829               	.LVL25:
 830 0668 69A1      		ldd r22,Y+33
 831 066a 7AA1      		ldd r23,Y+34
 832 066c 8BA1      		ldd r24,Y+35
 833 066e 9CA1      		ldd r25,Y+36
 834 0670 0E94 0000 		call __floatsisf
 835 0674 9B01      		movw r18,r22
 836 0676 AC01      		movw r20,r24
 837 0678 C801      		movw r24,r16
 838 067a B701      		movw r22,r14
 839 067c 0E94 0000 		call __ltsf2
 840 0680 87FD      		sbrc r24,7
 841 0682 00C0      		rjmp .L35
 842               	.L33:
 843               	.LM62:
 844 0684 4DA5      		ldd r20,Y+45
 845 0686 5EA5      		ldd r21,Y+46
 846 0688 BA01      		movw r22,r20
 847 068a 8827      		clr r24
 848 068c 77FD      		sbrc r23,7
 849 068e 8095      		com r24
 850 0690 982F      		mov r25,r24
 851               	.LVL26:
 852 0692 0E94 0000 		call __floatsisf
 853               	.LVL27:
 854 0696 1B01      		movw r2,r22
 855 0698 2C01      		movw r4,r24
 856 069a AF85      		ldd r26,Y+15
 857 069c B889      		ldd r27,Y+16
 858 069e BD01      		movw r22,r26
 859 06a0 8827      		clr r24
 860 06a2 77FD      		sbrc r23,7
 861 06a4 8095      		com r24
 862 06a6 982F      		mov r25,r24
 863               	.LVL28:
 864 06a8 0E94 0000 		call __floatsisf
 865               	.LVL29:
 866 06ac 3B01      		movw r6,r22
 867 06ae 4C01      		movw r8,r24
 868 06b0 ED85      		ldd r30,Y+13
 869 06b2 FE85      		ldd r31,Y+14
 870 06b4 BF01      		movw r22,r30
 871 06b6 8827      		clr r24
 872 06b8 77FD      		sbrc r23,7
 873 06ba 8095      		com r24
 874 06bc 982F      		mov r25,r24
 875               	.LVL30:
 876 06be 0E94 0000 		call __floatsisf
 877               	.LVL31:
 878 06c2 6983      		std Y+1,r22
 879 06c4 7A83      		std Y+2,r23
 880 06c6 8B83      		std Y+3,r24
 881 06c8 9C83      		std Y+4,r25
 882 06ca C201      		movw r24,r4
 883 06cc B101      		movw r22,r2
 884 06ce A201      		movw r20,r4
 885 06d0 9101      		movw r18,r2
 886 06d2 0E94 0000 		call __mulsf3
 887 06d6 7B01      		movw r14,r22
 888 06d8 8C01      		movw r16,r24
 889 06da C401      		movw r24,r8
 890 06dc B301      		movw r22,r6
 891 06de A401      		movw r20,r8
 892 06e0 9301      		movw r18,r6
 893 06e2 0E94 0000 		call __addsf3
 894 06e6 9B01      		movw r18,r22
 895 06e8 AC01      		movw r20,r24
 896 06ea C801      		movw r24,r16
 897 06ec B701      		movw r22,r14
 898 06ee 0E94 0000 		call __divsf3
 899 06f2 5B01      		movw r10,r22
 900 06f4 6C01      		movw r12,r24
 901 06f6 6981      		ldd r22,Y+1
 902 06f8 7A81      		ldd r23,Y+2
 903 06fa 8B81      		ldd r24,Y+3
 904 06fc 9C81      		ldd r25,Y+4
 905 06fe 9B01      		movw r18,r22
 906 0700 AC01      		movw r20,r24
 907 0702 0E94 0000 		call __mulsf3
 908 0706 7B01      		movw r14,r22
 909 0708 8C01      		movw r16,r24
 910 070a C401      		movw r24,r8
 911 070c B301      		movw r22,r6
 912 070e 20E0      		ldi r18,lo8(0xc0000000)
 913 0710 30E0      		ldi r19,hi8(0xc0000000)
 914 0712 40E0      		ldi r20,hlo8(0xc0000000)
 915 0714 50EC      		ldi r21,hhi8(0xc0000000)
 916 0716 0E94 0000 		call __mulsf3
 917 071a 9B01      		movw r18,r22
 918 071c AC01      		movw r20,r24
 919 071e C801      		movw r24,r16
 920 0720 B701      		movw r22,r14
 921 0722 0E94 0000 		call __divsf3
 922 0726 9B01      		movw r18,r22
 923 0728 AC01      		movw r20,r24
 924 072a C601      		movw r24,r12
 925 072c B501      		movw r22,r10
 926 072e 0E94 0000 		call __addsf3
 927 0732 5B01      		movw r10,r22
 928 0734 6C01      		movw r12,r24
 929               	.LVL32:
 930               	.L36:
 931               	.LM63:
 932 0736 6091 0000 		lds r22,mouse+6
 933 073a 7091 0000 		lds r23,(mouse+6)+1
 934 073e 8091 0000 		lds r24,(mouse+6)+2
 935 0742 9091 0000 		lds r25,(mouse+6)+3
 936 0746 0E94 0000 		call __floatsisf
 937 074a A601      		movw r20,r12
 938 074c 9501      		movw r18,r10
 939 074e 0E94 0000 		call __addsf3
 940 0752 7B01      		movw r14,r22
 941 0754 8C01      		movw r16,r24
 942 0756 6985      		ldd r22,Y+9
 943 0758 7A85      		ldd r23,Y+10
 944 075a 8B85      		ldd r24,Y+11
 945 075c 9C85      		ldd r25,Y+12
 946 075e 0E94 0000 		call __floatsisf
 947 0762 9B01      		movw r18,r22
 948 0764 AC01      		movw r20,r24
 949 0766 C801      		movw r24,r16
 950 0768 B701      		movw r22,r14
 951 076a 0E94 0000 		call __ltsf2
 952 076e 87FD      		sbrc r24,7
 953 0770 00C0      		rjmp .L36
 954               	.LM64:
 955 0772 A090 0000 		lds r10,milliseconds
 956 0776 B090 0000 		lds r11,(milliseconds)+1
 957 077a C090 0000 		lds r12,(milliseconds)+2
 958 077e D090 0000 		lds r13,(milliseconds)+3
 959               	.LVL33:
 960 0782 00C0      		rjmp .L37
 961               	.L38:
 962               	.LBB25:
 963               	.LM65:
 964 0784 6091 0000 		lds r22,milliseconds
 965 0788 7091 0000 		lds r23,(milliseconds)+1
 966 078c 8091 0000 		lds r24,(milliseconds)+2
 967 0790 9091 0000 		lds r25,(milliseconds)+3
 968 0794 6A19      		sub r22,r10
 969 0796 7B09      		sbc r23,r11
 970 0798 8C09      		sbc r24,r12
 971 079a 9D09      		sbc r25,r13
 972 079c 0E94 0000 		call __floatunsisf
 973 07a0 20E0      		ldi r18,lo8(0xc47a0000)
 974 07a2 30E0      		ldi r19,hi8(0xc47a0000)
 975 07a4 4AE7      		ldi r20,hlo8(0xc47a0000)
 976 07a6 54EC      		ldi r21,hhi8(0xc47a0000)
 977 07a8 0E94 0000 		call __divsf3
 978 07ac 9B01      		movw r18,r22
 979 07ae AC01      		movw r20,r24
 980 07b0 C401      		movw r24,r8
 981 07b2 B301      		movw r22,r6
 982 07b4 0E94 0000 		call __mulsf3
 983 07b8 9B01      		movw r18,r22
 984 07ba AC01      		movw r20,r24
 985 07bc C201      		movw r24,r4
 986 07be B101      		movw r22,r2
 987 07c0 0E94 0000 		call __addsf3
 988               	.LM66:
 989 07c4 6093 0000 		sts mouse+66,r22
 990 07c8 7093 0000 		sts (mouse+66)+1,r23
 991 07cc 8093 0000 		sts (mouse+66)+2,r24
 992 07d0 9093 0000 		sts (mouse+66)+3,r25
 993               	.LM67:
 994 07d4 0E94 0000 		call __fixsfsi
 995 07d8 7B01      		movw r14,r22
 996 07da 8C01      		movw r16,r24
 997 07dc CB01      		movw r24,r22
 998 07de 0E94 0000 		call getDelayFromVelocity
 999 07e2 AA27      		clr r26
 1000 07e4 97FD      		sbrc r25,7
 1001 07e6 A095      		com r26
 1002 07e8 BA2F      		mov r27,r26
 1003 07ea BC01      		movw r22,r24
 1004 07ec CD01      		movw r24,r26
 1005 07ee 0E94 0000 		call __floatsisf
 1006 07f2 6093 0000 		sts mouse+10,r22
 1007 07f6 7093 0000 		sts (mouse+10)+1,r23
 1008 07fa 8093 0000 		sts (mouse+10)+2,r24
 1009 07fe 9093 0000 		sts (mouse+10)+3,r25
 1010               	.LM68:
 1011 0802 C701      		movw r24,r14
 1012 0804 0E94 0000 		call getDelayFromVelocity
 1013 0808 AA27      		clr r26
 1014 080a 97FD      		sbrc r25,7
 1015 080c A095      		com r26
 1016 080e BA2F      		mov r27,r26
 1017 0810 BC01      		movw r22,r24
 1018 0812 CD01      		movw r24,r26
 1019 0814 0E94 0000 		call __floatsisf
 1020 0818 6093 0000 		sts mouse+34,r22
 1021 081c 7093 0000 		sts (mouse+34)+1,r23
 1022 0820 8093 0000 		sts (mouse+34)+2,r24
 1023 0824 9093 0000 		sts (mouse+34)+3,r25
 1024               	.LBB26:
 1025               	.LBB27:
 1026               	.LBB28:
 1027               	.LBB29:
 1028               	.LM69:
 1029 0828 80EA      		ldi r24,lo8(4000)
 1030 082a 9FE0      		ldi r25,hi8(4000)
 1031               	.LVL34:
 1032               	/* #APP */
 1033               	 ;  105 "c:/winavr-20100110/lib/gcc/../../avr/include/util/delay_basic.h" 1
 1034 082c 0197      		1: sbiw r24,1
 1035 082e 01F4      		brne 1b
 1036               	 ;  0 "" 2
 1037               	/* #NOAPP */
 1038               	.L37:
 1039               	.LBE29:
 1040               	.LBE28:
 1041               	.LBE27:
 1042               	.LBE26:
 1043               	.LBE25:
 1044               	.LM70:
 1045 0830 6091 0000 		lds r22,milliseconds
 1046 0834 7091 0000 		lds r23,(milliseconds)+1
 1047 0838 8091 0000 		lds r24,(milliseconds)+2
 1048 083c 9091 0000 		lds r25,(milliseconds)+3
 1049 0840 6A19      		sub r22,r10
 1050 0842 7B09      		sbc r23,r11
 1051 0844 8C09      		sbc r24,r12
 1052 0846 9D09      		sbc r25,r13
 1053 0848 0E94 0000 		call __floatunsisf
 1054               	.LVL35:
 1055 084c 20E0      		ldi r18,lo8(0xc47a0000)
 1056 084e 30E0      		ldi r19,hi8(0xc47a0000)
 1057 0850 4AE7      		ldi r20,hlo8(0xc47a0000)
 1058 0852 54EC      		ldi r21,hhi8(0xc47a0000)
 1059 0854 0E94 0000 		call __divsf3
 1060 0858 9B01      		movw r18,r22
 1061 085a AC01      		movw r20,r24
 1062 085c C401      		movw r24,r8
 1063 085e B301      		movw r22,r6
 1064 0860 0E94 0000 		call __mulsf3
 1065 0864 9B01      		movw r18,r22
 1066 0866 AC01      		movw r20,r24
 1067 0868 C201      		movw r24,r4
 1068 086a B101      		movw r22,r2
 1069 086c 0E94 0000 		call __addsf3
 1070 0870 2981      		ldd r18,Y+1
 1071 0872 3A81      		ldd r19,Y+2
 1072 0874 4B81      		ldd r20,Y+3
 1073 0876 5C81      		ldd r21,Y+4
 1074 0878 0E94 0000 		call __gtsf2
 1075 087c 1816      		cp __zero_reg__,r24
 1076 087e 04F4      		brge .+2
 1077 0880 00C0      		rjmp .L38
 1078               	.LVL36:
 1079               	.L39:
 1080               	/* epilogue start */
 1081               	.LM71:
 1082 0882 AE96      		adiw r28,46
 1083 0884 0FB6      		in __tmp_reg__,__SREG__
 1084 0886 F894      		cli
 1085 0888 DEBF      		out __SP_H__,r29
 1086 088a 0FBE      		out __SREG__,__tmp_reg__
 1087 088c CDBF      		out __SP_L__,r28
 1088 088e CF91      		pop r28
 1089 0890 DF91      		pop r29
 1090 0892 1F91      		pop r17
 1091 0894 0F91      		pop r16
 1092               	.LVL37:
 1093 0896 FF90      		pop r15
 1094 0898 EF90      		pop r14
 1095 089a DF90      		pop r13
 1096 089c CF90      		pop r12
 1097               	.LVL38:
 1098 089e BF90      		pop r11
 1099 08a0 AF90      		pop r10
 1100               	.LVL39:
 1101 08a2 9F90      		pop r9
 1102 08a4 8F90      		pop r8
 1103 08a6 7F90      		pop r7
 1104 08a8 6F90      		pop r6
 1105 08aa 5F90      		pop r5
 1106 08ac 4F90      		pop r4
 1107 08ae 3F90      		pop r3
 1108 08b0 2F90      		pop r2
 1109 08b2 0895      		ret
 1110               	.LFE6:
 1112               		.comm lPrevious,4,1
 1113               		.comm rPrevious,4,1
 1114               		.comm flag,2,1
 1179               	.Letext0:
DEFINED SYMBOLS
                            *ABS*:00000000 RobotModel_controls.c
C:\Users\Justin\AppData\Local\Temp/ccQMGsvo.s:2      *ABS*:0000003f __SREG__
C:\Users\Justin\AppData\Local\Temp/ccQMGsvo.s:3      *ABS*:0000003e __SP_H__
C:\Users\Justin\AppData\Local\Temp/ccQMGsvo.s:4      *ABS*:0000003d __SP_L__
C:\Users\Justin\AppData\Local\Temp/ccQMGsvo.s:5      *ABS*:00000034 __CCP__
C:\Users\Justin\AppData\Local\Temp/ccQMGsvo.s:6      *ABS*:00000000 __tmp_reg__
C:\Users\Justin\AppData\Local\Temp/ccQMGsvo.s:7      *ABS*:00000001 __zero_reg__
C:\Users\Justin\AppData\Local\Temp/ccQMGsvo.s:18     .text:00000000 startTimer
C:\Users\Justin\AppData\Local\Temp/ccQMGsvo.s:46     .text:00000022 __vector_21
C:\Users\Justin\AppData\Local\Temp/ccQMGsvo.s:87     .text:0000006c getLeftError
C:\Users\Justin\AppData\Local\Temp/ccQMGsvo.s:106    .text:0000007e getRightError
C:\Users\Justin\AppData\Local\Temp/ccQMGsvo.s:125    .text:00000090 getOffsetError
                            *COM*:00000002 flag
                            *COM*:00000004 lPrevious
                            *COM*:00000004 rPrevious
C:\Users\Justin\AppData\Local\Temp/ccQMGsvo.s:421    .text:00000304 straight

UNDEFINED SYMBOLS
milliseconds
getLeftIR
__subsf3
getRightIR
__gtsf2
mouse
__floatsisf
__mulsf3
__ltsf2
__fixsfsi
__floatunsisf
__divsf3
__addsf3
getDelayFromVelocity
__gesf2
__do_clear_bss
